; Function Attrs: mustprogress nounwind uwtable
define i64 @_ZN5boost6chrono22process_user_cpu_clock3nowEv() local_unnamed_addr #4 align 2 personality ptr @__gxx_personality_v0 {
  %1 = alloca %struct.tms, align 8
  call void @llvm.lifetime.start.p0(i64 32, ptr nonnull %1) #23
  %2 = call i64 @times(ptr noundef nonnull %1) #23
  %3 = icmp eq i64 %2, -1
  br i1 %3, label %_ZN5boost6chrono10time_pointINS0_22process_user_cpu_clockENS0_8durationIlSt5ratioILl1ELl1000000000EEEEEC2Ev.exit, label %4

4:                                                ; preds = %0
  %5 = tail call i64 @sysconf(i32 noundef 2) #23
  %6 = add i64 %5, -1000000001
  %or.cond = icmp ult i64 %6, -1000000000
  br i1 %or.cond, label %_ZN5boost6chrono10time_pointINS0_22process_user_cpu_clockENS0_8durationIlSt5ratioILl1ELl1000000000EEEEEC2Ev.exit, label %_ZN5boost6chrono13chrono_detail11tick_factorEv.exit

_ZN5boost6chrono13chrono_detail11tick_factorEv.exit: ; preds = %4
  %7 = load i64, ptr %1, align 8, !tbaa !31
  %8 = getelementptr inbounds nuw i8, ptr %1, i64 16
  %9 = load i64, ptr %8, align 8, !tbaa !33
  %10 = add nsw i64 %9, %7
  %11 = tail call i64 @sysconf(i32 noundef 2) #23
  %12 = icmp slt i64 %11, 1
  br i1 %12, label %_ZN5boost6chrono13chrono_detail11tick_factorEv.exit4, label %13

13:                                               ; preds = %_ZN5boost6chrono13chrono_detail11tick_factorEv.exit
  %14 = udiv i64 1000000000, %11
  %.not.i1 = icmp ugt i64 %11, 1000000000
  %spec.store.select.i2 = select i1 %.not.i1, i64 -1, i64 %14
  br label %_ZN5boost6chrono13chrono_detail11tick_factorEv.exit4

_ZN5boost6chrono13chrono_detail11tick_factorEv.exit4: ; preds = %_ZN5boost6chrono13chrono_detail11tick_factorEv.exit, %13
  %.0.i3 = phi i64 [ %spec.store.select.i2, %13 ], [ -1, %_ZN5boost6chrono13chrono_detail11tick_factorEv.exit ]
  %15 = mul nsw i64 %.0.i3, %10
  br label %_ZN5boost6chrono10time_pointINS0_22process_user_cpu_clockENS0_8durationIlSt5ratioILl1ELl1000000000EEEEEC2Ev.exit

_ZN5boost6chrono10time_pointINS0_22process_user_cpu_clockENS0_8durationIlSt5ratioILl1ELl1000000000EEEEEC2Ev.exit: ; preds = %4, %0, %_ZN5boost6chrono13chrono_detail11tick_factorEv.exit4
  %.sroa.05.0 = phi i64 [ %15, %_ZN5boost6chrono13chrono_detail11tick_factorEv.exit4 ], [ 0, %0 ], [ 0, %4 ]
  call void @llvm.lifetime.end.p0(i64 32, ptr nonnull %1) #23
  ret i64 %.sroa.05.0
}